; Function Attrs: mustprogress nofree norecurse nosync nounwind memory(argmem: readwrite) uwtable
define void @_ZN16ImGuiMenuColumns6UpdateEfb(ptr noundef nonnull align 4 captures(none) dereferenceable(26) initializes((8, 10)) %0, float noundef %1, i1 noundef zeroext %2) local_unnamed_addr #18 align 2 {
  br i1 %2, label %4, label %6

4:                                                ; preds = %3
  %5 = getelementptr inbounds nuw i8, ptr %0, i64 18
  store i64 0, ptr %5, align 2
  br label %6

6:                                                ; preds = %4, %3
  %7 = fptoui float %1 to i16
  %8 = getelementptr inbounds nuw i8, ptr %0, i64 8
  store i16 %7, ptr %8, align 4, !tbaa !683
  %9 = getelementptr inbounds nuw i8, ptr %0, i64 18
  %10 = getelementptr inbounds nuw i8, ptr %0, i64 16
  %11 = getelementptr inbounds nuw i8, ptr %0, i64 14
  %12 = getelementptr inbounds nuw i8, ptr %0, i64 12
  br label %.split.us.i

.split.us.i:                                      ; preds = %22, %6
  %indvars.iv29.i = phi i64 [ %indvars.iv.next30.i, %22 ], [ 0, %6 ]
  %.024.us.i = phi i16 [ %23, %22 ], [ 0, %6 ]
  %.02122.us.i = phi i1 [ %17, %22 ], [ false, %6 ]
  %13 = getelementptr inbounds nuw [4 x i16], ptr %9, i64 0, i64 %indvars.iv29.i
  %14 = load i16, ptr %13, align 2, !tbaa !190
  %15 = icmp ne i16 %14, 0
  %or.cond.us.i = select i1 %.02122.us.i, i1 %15, i1 false
  %16 = select i1 %or.cond.us.i, i16 %7, i16 0
  %.1.us.i = add i16 %16, %.024.us.i
  %17 = or i1 %.02122.us.i, %15
  %18 = trunc nuw nsw i64 %indvars.iv29.i to i32
  switch i32 %18, label %22 [
    i32 1, label %21
    i32 2, label %20
    i32 3, label %19
  ]

19:                                               ; preds = %.split.us.i
  store i16 %.1.us.i, ptr %10, align 4, !tbaa !684
  br label %22

20:                                               ; preds = %.split.us.i
  store i16 %.1.us.i, ptr %11, align 2, !tbaa !685
  br label %22

21:                                               ; preds = %.split.us.i
  store i16 %.1.us.i, ptr %12, align 4, !tbaa !686
  br label %22

22:                                               ; preds = %21, %20, %19, %.split.us.i
  %23 = add i16 %.1.us.i, %14
  %indvars.iv.next30.i = add nuw nsw i64 %indvars.iv29.i, 1
  %exitcond31.not.i = icmp eq i64 %indvars.iv.next30.i, 4
  br i1 %exitcond31.not.i, label %_ZN16ImGuiMenuColumns18CalcNextTotalWidthEb.exit, label %.split.us.i, !llvm.loop !687

_ZN16ImGuiMenuColumns18CalcNextTotalWidthEb.exit: ; preds = %22
  %24 = zext i16 %23 to i32
  %25 = getelementptr inbounds nuw i8, ptr %0, i64 4
  store i64 0, ptr %9, align 2
  store i32 %24, ptr %0, align 4, !tbaa !688
  store i32 0, ptr %25, align 4, !tbaa !689
  ret void
}